; Function Attrs: mustprogress nofree norecurse nosync nounwind willreturn memory(readwrite, inaccessiblemem: none) uwtable
define hidden noundef i32 @mbedtls_asn1_write_raw_buffer(ptr noundef captures(none) %0, ptr noundef %1, ptr noundef readonly captures(none) %2, i64 noundef %3) local_unnamed_addr #2 {
  %5 = load ptr, ptr %0, align 8, !tbaa !5
  %6 = icmp ult ptr %5, %1
  %7 = ptrtoint ptr %5 to i64
  %8 = ptrtoint ptr %1 to i64
  %9 = sub i64 %7, %8
  %10 = icmp ult i64 %9, %3
  %or.cond = or i1 %6, %10
  br i1 %or.cond, label %15, label %11

11:                                               ; preds = %4
  %12 = sub i64 0, %3
  %13 = getelementptr inbounds i8, ptr %5, i64 %12
  store ptr %13, ptr %0, align 8, !tbaa !5
  tail call void @llvm.memcpy.p0.p0.i64(ptr align 1 %13, ptr align 1 %2, i64 %3, i1 false)
  %14 = trunc i64 %3 to i32
  br label %15

15:                                               ; preds = %4, %11
  %.0 = phi i32 [ %14, %11 ], [ -108, %4 ]
  ret i32 %.0
}